; Function Attrs: nounwind uwtable
define ptr @l_Array_foldrMUnsafe_fold___at_Lean_LocalContext_foldr___spec__8___rarg(ptr noundef %0, ptr noundef readonly captures(none) %1, i64 noundef %2, i64 noundef %3, ptr noundef %4) local_unnamed_addr #2 {
  %.not50 = icmp eq i64 %2, %3
  br i1 %.not50, label %.._crit_edge_crit_edge, label %.lr.ph

.._crit_edge_crit_edge:                           ; preds = %5
  %.pre = ptrtoint ptr %0 to i64
  %.pre53 = and i64 %.pre, 1
  br label %._crit_edge

.lr.ph:                                           ; preds = %5
  %6 = getelementptr inbounds nuw i8, ptr %1, i64 24
  %7 = ptrtoint ptr %0 to i64
  %8 = and i64 %7, 1
  %.not49 = icmp eq i64 %8, 0
  br label %9

9:                                                ; preds = %.lr.ph, %lean_dec.exit
  %.02152 = phi i64 [ %2, %.lr.ph ], [ %10, %lean_dec.exit ]
  %.02551 = phi ptr [ %4, %.lr.ph ], [ %.227, %lean_dec.exit ]
  %10 = add i64 %.02152, -1
  %11 = getelementptr inbounds nuw [0 x ptr], ptr %6, i64 0, i64 %10
  %12 = load ptr, ptr %11, align 8, !tbaa !9
  %13 = ptrtoint ptr %12 to i64
  %14 = and i64 %13, 1
  %.not.i32 = icmp eq i64 %14, 0
  br i1 %.not.i32, label %15, label %lean_array_uget.exit

15:                                               ; preds = %9
  %.val.i.i = load i32, ptr %12, align 4, !tbaa !4
  %16 = icmp sgt i32 %.val.i.i, 0
  br i1 %16, label %17, label %19, !prof !11

17:                                               ; preds = %15
  %18 = add nuw i32 %.val.i.i, 1
  store i32 %18, ptr %12, align 4, !tbaa !4
  br label %23

19:                                               ; preds = %15
  %.not.i.i = icmp eq i32 %.val.i.i, 0
  br i1 %.not.i.i, label %23, label %20

20:                                               ; preds = %19
  tail call void @lean_inc_ref_cold(ptr noundef nonnull %12) #8
  br label %23

lean_array_uget.exit:                             ; preds = %9
  %21 = lshr i64 %13, 1
  %22 = trunc i64 %21 to i32
  br label %lean_obj_tag.exit

23:                                               ; preds = %17, %19, %20
  %24 = getelementptr i8, ptr %12, i64 4
  %.val.i = load i32, ptr %24, align 4
  %25 = lshr i32 %.val.i, 24
  br label %lean_obj_tag.exit

lean_obj_tag.exit:                                ; preds = %lean_array_uget.exit, %23
  %.0.i = phi i32 [ %22, %lean_array_uget.exit ], [ %25, %23 ]
  %26 = icmp eq i32 %.0.i, 0
  br i1 %26, label %lean_dec.exit, label %27

27:                                               ; preds = %lean_obj_tag.exit
  %28 = getelementptr inbounds nuw i8, ptr %12, i64 8
  %29 = load ptr, ptr %28, align 8, !tbaa !9
  %30 = ptrtoint ptr %29 to i64
  %31 = and i64 %30, 1
  %.not47 = icmp eq i64 %31, 0
  br i1 %.not47, label %32, label %lean_inc.exit29

32:                                               ; preds = %27
  %.val.i34 = load i32, ptr %29, align 4, !tbaa !4
  %33 = icmp sgt i32 %.val.i34, 0
  br i1 %33, label %34, label %36, !prof !11

34:                                               ; preds = %32
  %35 = add nuw i32 %.val.i34, 1
  store i32 %35, ptr %29, align 4, !tbaa !4
  br label %lean_inc.exit29

36:                                               ; preds = %32
  %.not.i35 = icmp eq i32 %.val.i34, 0
  br i1 %.not.i35, label %lean_inc.exit29, label %37

37:                                               ; preds = %36
  tail call void @lean_inc_ref_cold(ptr noundef nonnull %29) #8
  br label %lean_inc.exit29

lean_inc.exit29:                                  ; preds = %37, %36, %34, %27
  br i1 %.not.i32, label %38, label %lean_dec.exit28

38:                                               ; preds = %lean_inc.exit29
  %39 = load i32, ptr %12, align 4, !tbaa !4
  %40 = icmp sgt i32 %39, 1
  br i1 %40, label %41, label %43, !prof !11

41:                                               ; preds = %38
  %42 = add nsw i32 %39, -1
  store i32 %42, ptr %12, align 4, !tbaa !4
  br label %lean_dec.exit28

43:                                               ; preds = %38
  %.not.i = icmp eq i32 %39, 0
  br i1 %.not.i, label %lean_dec.exit28, label %44

44:                                               ; preds = %43
  tail call void @lean_dec_ref_cold(ptr noundef nonnull %12) #8
  br label %lean_dec.exit28

lean_dec.exit28:                                  ; preds = %44, %43, %41, %lean_inc.exit29
  br i1 %.not49, label %45, label %lean_inc.exit

45:                                               ; preds = %lean_dec.exit28
  %.val.i36 = load i32, ptr %0, align 4, !tbaa !4
  %46 = icmp sgt i32 %.val.i36, 0
  br i1 %46, label %47, label %49, !prof !11

47:                                               ; preds = %45
  %48 = add nuw i32 %.val.i36, 1
  store i32 %48, ptr %0, align 4, !tbaa !4
  br label %lean_inc.exit

49:                                               ; preds = %45
  %.not.i37 = icmp eq i32 %.val.i36, 0
  br i1 %.not.i37, label %lean_inc.exit, label %50

50:                                               ; preds = %49
  tail call void @lean_inc_ref_cold(ptr noundef nonnull %0) #8
  br label %lean_inc.exit

lean_inc.exit:                                    ; preds = %50, %49, %47, %lean_dec.exit28
  %51 = tail call ptr @lean_apply_2(ptr noundef %0, ptr noundef %29, ptr noundef %.02551) #8
  br label %lean_dec.exit

._crit_edge:                                      ; preds = %lean_dec.exit, %.._crit_edge_crit_edge
  %.pre-phi54 = phi i64 [ %.pre53, %.._crit_edge_crit_edge ], [ %8, %lean_dec.exit ]
  %.025.lcssa = phi ptr [ %4, %.._crit_edge_crit_edge ], [ %.227, %lean_dec.exit ]
  %.not46 = icmp eq i64 %.pre-phi54, 0
  br i1 %.not46, label %52, label %59

52:                                               ; preds = %._crit_edge
  %53 = load i32, ptr %0, align 4, !tbaa !4
  %54 = icmp sgt i32 %53, 1
  br i1 %54, label %55, label %57, !prof !11

55:                                               ; preds = %52
  %56 = add nsw i32 %53, -1
  store i32 %56, ptr %0, align 4, !tbaa !4
  br label %59

57:                                               ; preds = %52
  %.not.i30 = icmp eq i32 %53, 0
  br i1 %.not.i30, label %59, label %58

58:                                               ; preds = %57
  tail call void @lean_dec_ref_cold(ptr noundef nonnull %0) #8
  br label %59

lean_dec.exit:                                    ; preds = %lean_inc.exit, %lean_obj_tag.exit
  %.227 = phi ptr [ %51, %lean_inc.exit ], [ %.02551, %lean_obj_tag.exit ]
  %.not = icmp eq i64 %10, %3
  br i1 %.not, label %._crit_edge, label %9

59:                                               ; preds = %58, %57, %55, %._crit_edge
  ret ptr %.025.lcssa
}